; Function Attrs: nounwind uwtable
define hidden i32 @nghttp2_submit_data_shared(ptr noundef %0, i8 noundef zeroext %1, i32 noundef %2, ptr noundef readonly captures(none) %3) local_unnamed_addr #0 {
  %5 = and i8 %1, 1
  %6 = getelementptr inbounds nuw i8, ptr %0, i64 2344
  %7 = icmp eq i32 %2, 0
  br i1 %7, label %17, label %8

8:                                                ; preds = %4
  %9 = tail call ptr @nghttp2_mem_malloc(ptr noundef nonnull %6, i64 noundef 160) #8
  %10 = icmp eq ptr %9, null
  br i1 %10, label %17, label %11

11:                                               ; preds = %8
  tail call void @nghttp2_outbound_item_init(ptr noundef nonnull %9) #8
  %12 = getelementptr inbounds nuw i8, ptr %9, i64 96
  tail call void @llvm.memcpy.p0.p0.i64(ptr noundef nonnull align 8 dereferenceable(24) %12, ptr noundef nonnull align 8 dereferenceable(24) %3, i64 24, i1 false), !tbaa.struct !8
  %13 = getelementptr inbounds nuw i8, ptr %9, i64 121
  store i8 0, ptr %13, align 1, !tbaa !55
  %14 = getelementptr inbounds nuw i8, ptr %9, i64 120
  store i8 %5, ptr %14, align 8, !tbaa !58
  tail call void @nghttp2_frame_data_init(ptr noundef nonnull %9, i8 noundef zeroext 0, i32 noundef %2) #8
  %15 = tail call i32 @nghttp2_session_add_item(ptr noundef nonnull %0, ptr noundef nonnull %9) #8
  %.not = icmp eq i32 %15, 0
  br i1 %.not, label %17, label %16

16:                                               ; preds = %11
  tail call void @nghttp2_frame_data_free(ptr noundef nonnull %9) #8
  tail call void @nghttp2_mem_free(ptr noundef nonnull %6, ptr noundef nonnull %9) #8
  br label %17

17:                                               ; preds = %11, %8, %4, %16
  %.0 = phi i32 [ %15, %16 ], [ -501, %4 ], [ -901, %8 ], [ 0, %11 ]
  ret i32 %.0
}